target datalayout = "e-m:e-p270:32:32-p271:32:32-p272:64:64-i64:64-i128:128-f80:128-n8:16:32:64-S128"
target triple = "x86_64-pc-linux-gnu"

%struct.AVFilterContext = type { ptr, ptr, ptr, ptr, ptr, i32, ptr, ptr, i32, ptr, ptr, i32, i32, ptr, ptr, ptr, ptr, i32, ptr, i32, i32 }
%struct.ASuperCutContext = type { ptr, double, double, double, i32, i32, i32, [10 x %struct.BiquadCoeffs], ptr, ptr }
%struct.BiquadCoeffs = type { double, double, double, double, double }
%struct.ThreadData = type { ptr, ptr }
%struct.AVFilterLink = type { ptr, ptr, ptr, ptr, i32, i32, i32, i32, %struct.AVRational, i32, i32, i32, %struct.AVChannelLayout, %struct.AVRational, ptr, i32, %struct.AVFilterFormatsConfig, %struct.AVFilterFormatsConfig }
%struct.AVChannelLayout = type { i32, i32, %union.anon.1, ptr }
%union.anon.1 = type { i64 }
%struct.AVRational = type { i32, i32 }
%struct.AVFilterFormatsConfig = type { ptr, ptr, ptr, ptr, ptr }
%struct.AVFrame = type { [8 x ptr], [8 x i32], ptr, i32, i32, i32, i32, i32, %struct.AVRational, i64, i64, %struct.AVRational, i32, ptr, i32, i32, [8 x ptr], ptr, i32, ptr, i32, i32, i32, i32, i32, i32, i32, i64, ptr, i32, ptr, ptr, i64, i64, i64, i64, ptr, %struct.AVChannelLayout, i64 }

; Function Attrs: nounwind uwtable
define internal i32 @filter_frame(ptr noundef %0, ptr noundef %1) #1 {
  %3 = alloca i32, align 4
  %4 = alloca ptr, align 8
  %5 = alloca ptr, align 8
  %6 = alloca ptr, align 8
  %7 = alloca ptr, align 8
  %8 = alloca ptr, align 8
  %9 = alloca %struct.ThreadData, align 8
  %10 = alloca ptr, align 8
  %11 = alloca i32, align 4
  store ptr %0, ptr %4, align 8, !tbaa !26
  store ptr %1, ptr %5, align 8, !tbaa !28
  call void @llvm.lifetime.start.p0(i64 8, ptr %6) #6
  %12 = load ptr, ptr %4, align 8, !tbaa !26
  %13 = getelementptr inbounds nuw %struct.AVFilterLink, ptr %12, i32 0, i32 2
  %14 = load ptr, ptr %13, align 8, !tbaa !30
  store ptr %14, ptr %6, align 8, !tbaa !4
  call void @llvm.lifetime.start.p0(i64 8, ptr %7) #6
  %15 = load ptr, ptr %6, align 8, !tbaa !4
  %16 = getelementptr inbounds nuw %struct.AVFilterContext, ptr %15, i32 0, i32 9
  %17 = load ptr, ptr %16, align 8, !tbaa !9
  store ptr %17, ptr %7, align 8, !tbaa !22
  call void @llvm.lifetime.start.p0(i64 8, ptr %8) #6
  %18 = load ptr, ptr %6, align 8, !tbaa !4
  %19 = getelementptr inbounds nuw %struct.AVFilterContext, ptr %18, i32 0, i32 7
  %20 = load ptr, ptr %19, align 8, !tbaa !38
  %21 = getelementptr inbounds ptr, ptr %20, i64 0
  %22 = load ptr, ptr %21, align 8, !tbaa !26
  store ptr %22, ptr %8, align 8, !tbaa !26
  call void @llvm.lifetime.start.p0(i64 16, ptr %9) #6
  call void @llvm.lifetime.start.p0(i64 8, ptr %10) #6
  %23 = load ptr, ptr %7, align 8, !tbaa !22
  %24 = getelementptr inbounds nuw %struct.ASuperCutContext, ptr %23, i32 0, i32 6
  %25 = load i32, ptr %24, align 8, !tbaa !39
  %26 = icmp ne i32 %25, 0
  br i1 %26, label %27, label %31

27:                                               ; preds = %2
  %28 = load ptr, ptr %8, align 8, !tbaa !26
  %29 = load ptr, ptr %5, align 8, !tbaa !28
  %30 = call i32 @ff_filter_frame(ptr noundef %28, ptr noundef %29)
  store i32 %30, ptr %3, align 4
  store i32 1, ptr %11, align 4
  br label %85

31:                                               ; preds = %2
  %32 = load ptr, ptr %5, align 8, !tbaa !28
  %33 = call i32 @av_frame_is_writable(ptr noundef %32)
  %34 = icmp ne i32 %33, 0
  br i1 %34, label %35, label %37

35:                                               ; preds = %31
  %36 = load ptr, ptr %5, align 8, !tbaa !28
  store ptr %36, ptr %10, align 8, !tbaa !28
  br label %50

37:                                               ; preds = %31
  %38 = load ptr, ptr %8, align 8, !tbaa !26
  %39 = load ptr, ptr %5, align 8, !tbaa !28
  %40 = getelementptr inbounds nuw %struct.AVFrame, ptr %39, i32 0, i32 5
  %41 = load i32, ptr %40, align 8, !tbaa !42
  %42 = call ptr @ff_get_audio_buffer(ptr noundef %38, i32 noundef %41)
  store ptr %42, ptr %10, align 8, !tbaa !28
  %43 = load ptr, ptr %10, align 8, !tbaa !28
  %44 = icmp ne ptr %43, null
  br i1 %44, label %46, label %45

45:                                               ; preds = %37
  call void @av_frame_free(ptr noundef %5)
  store i32 -12, ptr %3, align 4
  store i32 1, ptr %11, align 4
  br label %85

46:                                               ; preds = %37
  %47 = load ptr, ptr %10, align 8, !tbaa !28
  %48 = load ptr, ptr %5, align 8, !tbaa !28
  %49 = call i32 @av_frame_copy_props(ptr noundef %47, ptr noundef %48)
  br label %50

50:                                               ; preds = %46, %35
  %51 = load ptr, ptr %5, align 8, !tbaa !28
  %52 = getelementptr inbounds nuw %struct.ThreadData, ptr %9, i32 0, i32 0
  store ptr %51, ptr %52, align 8, !tbaa !48
  %53 = load ptr, ptr %10, align 8, !tbaa !28
  %54 = getelementptr inbounds nuw %struct.ThreadData, ptr %9, i32 0, i32 1
  store ptr %53, ptr %54, align 8, !tbaa !50
  %55 = load ptr, ptr %6, align 8, !tbaa !4
  %56 = load ptr, ptr %7, align 8, !tbaa !22
  %57 = getelementptr inbounds nuw %struct.ASuperCutContext, ptr %56, i32 0, i32 9
  %58 = load ptr, ptr %57, align 8, !tbaa !51
  %59 = load ptr, ptr %4, align 8, !tbaa !26
  %60 = getelementptr inbounds nuw %struct.AVFilterLink, ptr %59, i32 0, i32 12
  %61 = getelementptr inbounds nuw %struct.AVChannelLayout, ptr %60, i32 0, i32 1
  %62 = load i32, ptr %61, align 4, !tbaa !52
  %63 = load ptr, ptr %6, align 8, !tbaa !4
  %64 = call i32 @ff_filter_get_nb_threads(ptr noundef %63) #7
  %65 = icmp sgt i32 %62, %64
  br i1 %65, label %66, label %69

66:                                               ; preds = %50
  %67 = load ptr, ptr %6, align 8, !tbaa !4
  %68 = call i32 @ff_filter_get_nb_threads(ptr noundef %67) #7
  br label %74

69:                                               ; preds = %50
  %70 = load ptr, ptr %4, align 8, !tbaa !26
  %71 = getelementptr inbounds nuw %struct.AVFilterLink, ptr %70, i32 0, i32 12
  %72 = getelementptr inbounds nuw %struct.AVChannelLayout, ptr %71, i32 0, i32 1
  %73 = load i32, ptr %72, align 4, !tbaa !52
  br label %74

74:                                               ; preds = %69, %66
  %75 = phi i32 [ %68, %66 ], [ %73, %69 ]
  %76 = call i32 @ff_filter_execute(ptr noundef %55, ptr noundef %58, ptr noundef %9, ptr noundef null, i32 noundef %75)
  %77 = load ptr, ptr %10, align 8, !tbaa !28
  %78 = load ptr, ptr %5, align 8, !tbaa !28
  %79 = icmp ne ptr %77, %78
  br i1 %79, label %80, label %81

80:                                               ; preds = %74
  call void @av_frame_free(ptr noundef %5)
  br label %81

81:                                               ; preds = %80, %74
  %82 = load ptr, ptr %8, align 8, !tbaa !26
  %83 = load ptr, ptr %10, align 8, !tbaa !28
  %84 = call i32 @ff_filter_frame(ptr noundef %82, ptr noundef %83)
  store i32 %84, ptr %3, align 4
  store i32 1, ptr %11, align 4
  br label %85

85:                                               ; preds = %81, %45, %27
  call void @llvm.lifetime.end.p0(i64 8, ptr %10) #6
  call void @llvm.lifetime.end.p0(i64 16, ptr %9) #6
  call void @llvm.lifetime.end.p0(i64 8, ptr %8) #6
  call void @llvm.lifetime.end.p0(i64 8, ptr %7) #6
  call void @llvm.lifetime.end.p0(i64 8, ptr %6) #6
  %86 = load i32, ptr %3, align 4
  ret i32 %86
}