; Function Attrs: nounwind uwtable
define internal i32 @filter_frame(ptr noundef readonly captures(none) %0, ptr noundef %1) #1 {
  %3 = alloca ptr, align 8
  %4 = alloca %struct.ThreadData, align 8
  store ptr %1, ptr %3, align 8, !tbaa !20
  %5 = getelementptr inbounds nuw i8, ptr %0, i64 16
  %6 = load ptr, ptr %5, align 8, !tbaa !22
  %7 = getelementptr inbounds nuw i8, ptr %6, i64 72
  %8 = load ptr, ptr %7, align 8, !tbaa !4
  %9 = getelementptr inbounds nuw i8, ptr %6, i64 56
  %10 = load ptr, ptr %9, align 8, !tbaa !31
  %11 = load ptr, ptr %10, align 8, !tbaa !32
  call void @llvm.lifetime.start.p0(i64 16, ptr nonnull %4) #10
  %12 = getelementptr inbounds nuw i8, ptr %8, i64 40
  %13 = load i32, ptr %12, align 8, !tbaa !34
  %.not = icmp eq i32 %13, 0
  br i1 %.not, label %16, label %14

14:                                               ; preds = %2
  %15 = tail call i32 @ff_filter_frame(ptr noundef %11, ptr noundef %1) #10
  br label %37

16:                                               ; preds = %2
  %17 = tail call i32 @av_frame_is_writable(ptr noundef %1) #10
  %.not22 = icmp eq i32 %17, 0
  br i1 %.not22, label %18, label %25

18:                                               ; preds = %16
  %19 = getelementptr inbounds nuw i8, ptr %1, i64 112
  %20 = load i32, ptr %19, align 8, !tbaa !37
  %21 = tail call ptr @ff_get_audio_buffer(ptr noundef %11, i32 noundef %20) #10
  %.not23 = icmp eq ptr %21, null
  br i1 %.not23, label %22, label %23

22:                                               ; preds = %18
  call void @av_frame_free(ptr noundef nonnull %3) #10
  br label %37

23:                                               ; preds = %18
  %24 = tail call i32 @av_frame_copy_props(ptr noundef nonnull %21, ptr noundef nonnull %1) #10
  br label %25

25:                                               ; preds = %16, %23
  %.0 = phi ptr [ %21, %23 ], [ %1, %16 ]
  store ptr %1, ptr %4, align 8, !tbaa !43
  %26 = getelementptr inbounds nuw i8, ptr %4, i64 8
  store ptr %.0, ptr %26, align 8, !tbaa !45
  %27 = getelementptr inbounds nuw i8, ptr %8, i64 456
  %28 = load ptr, ptr %27, align 8, !tbaa !46
  %29 = getelementptr inbounds nuw i8, ptr %0, i64 76
  %30 = load i32, ptr %29, align 4, !tbaa !47
  %31 = tail call i32 @ff_filter_get_nb_threads(ptr noundef nonnull %6) #11
  %. = tail call i32 @llvm.smin.i32(i32 %30, i32 %31)
  %32 = call i32 @ff_filter_execute(ptr noundef nonnull %6, ptr noundef %28, ptr noundef nonnull %4, ptr noundef null, i32 noundef %.) #10
  %33 = load ptr, ptr %3, align 8, !tbaa !20
  %.not24 = icmp eq ptr %.0, %33
  br i1 %.not24, label %35, label %34

34:                                               ; preds = %25
  call void @av_frame_free(ptr noundef nonnull %3) #10
  br label %35

35:                                               ; preds = %34, %25
  %36 = call i32 @ff_filter_frame(ptr noundef %11, ptr noundef %.0) #10
  br label %37

37:                                               ; preds = %35, %22, %14
  %.018 = phi i32 [ %15, %14 ], [ %36, %35 ], [ -12, %22 ]
  call void @llvm.lifetime.end.p0(i64 16, ptr nonnull %4) #10
  ret i32 %.018
}